; Function Attrs: mustprogress nofree norecurse nosync nounwind willreturn memory(argmem: read) uwtable
define noundef zeroext i1 @_Z8LowAsciiPKw(ptr nocapture noundef readonly %0) local_unnamed_addr #9 {
  br label %2

2:                                                ; preds = %2, %1
  %.0 = phi i64 [ 0, %1 ], [ %6, %2 ]
  %3 = getelementptr inbounds i32, ptr %0, i64 %.0
  %4 = load i32, ptr %3, align 4
  %5 = add i32 %4, -128
  %or.cond = icmp ult i32 %5, -127
  %6 = add i64 %.0, 1
  br i1 %or.cond, label %7, label %2, !llvm.loop !13

7:                                                ; preds = %2
  %.not = icmp eq i32 %4, 0
  ret i1 %.not
}